target datalayout = "e-m:e-p270:32:32-p271:32:32-p272:64:64-i64:64-i128:128-f80:128-n8:16:32:64-S128"
target triple = "x86_64-pc-linux-gnu"

%"struct.std::pair" = type { ptr, ptr }
%"class.clang::ento::SVal" = type <{ ptr, i8, [7 x i8] }>
%"class.clang::ento::Environment" = type { %"class.llvm::ImmutableMap" }
%"class.llvm::ImmutableMap" = type { %"class.llvm::IntrusiveRefCntPtr" }
%"class.llvm::IntrusiveRefCntPtr" = type { ptr }
%"struct.std::pair.48" = type { %"class.clang::ento::EnvironmentEntry", %"class.clang::ento::SVal" }
%"class.clang::ento::EnvironmentEntry" = type { %"struct.std::pair" }
%"class.clang::ento::EnvironmentManager" = type { %"class.llvm::ImmutableMap<clang::ento::EnvironmentEntry, clang::ento::SVal>::Factory" }
%"class.llvm::ImmutableMap<clang::ento::EnvironmentEntry, clang::ento::SVal>::Factory" = type <{ %"class.llvm::ImutAVLFactory", i8, [7 x i8] }>
%"class.llvm::ImutAVLFactory" = type { %"class.llvm::DenseMap.25", i64, %"class.std::vector", %"class.std::vector" }
%"class.llvm::DenseMap.25" = type <{ ptr, i32, i32, i32, [4 x i8] }>
%"class.std::vector" = type { %"struct.std::_Vector_base" }
%"struct.std::_Vector_base" = type { %"struct.std::_Vector_base<llvm::ImutAVLTree<llvm::ImutKeyValueInfo<clang::ento::EnvironmentEntry, clang::ento::SVal>> *, std::allocator<llvm::ImutAVLTree<llvm::ImutKeyValueInfo<clang::ento::EnvironmentEntry, clang::ento::SVal>> *>>::_Vector_impl" }
%"struct.std::_Vector_base<llvm::ImutAVLTree<llvm::ImutKeyValueInfo<clang::ento::EnvironmentEntry, clang::ento::SVal>> *, std::allocator<llvm::ImutAVLTree<llvm::ImutKeyValueInfo<clang::ento::EnvironmentEntry, clang::ento::SVal>> *>>::_Vector_impl" = type { %"struct.std::_Vector_base<llvm::ImutAVLTree<llvm::ImutKeyValueInfo<clang::ento::EnvironmentEntry, clang::ento::SVal>> *, std::allocator<llvm::ImutAVLTree<llvm::ImutKeyValueInfo<clang::ento::EnvironmentEntry, clang::ento::SVal>> *>>::_Vector_impl_data" }
%"struct.std::_Vector_base<llvm::ImutAVLTree<llvm::ImutKeyValueInfo<clang::ento::EnvironmentEntry, clang::ento::SVal>> *, std::allocator<llvm::ImutAVLTree<llvm::ImutKeyValueInfo<clang::ento::EnvironmentEntry, clang::ento::SVal>> *>>::_Vector_impl_data" = type { ptr, ptr, ptr }
%"class.llvm::ImutAVLTree" = type { ptr, ptr, ptr, ptr, ptr, i32, %"struct.std::pair.48", i32, i32 }

; Function Attrs: mustprogress nounwind uwtable
define linkonce_odr hidden void @_ZN4llvm11ImutAVLTreeINS_16ImutKeyValueInfoIN5clang4ento16EnvironmentEntryENS3_4SValEEEE7releaseEv(ptr noundef nonnull align 8 dereferenceable(88) %0) #0 comdat align 2 {
  %2 = alloca ptr, align 8
  store ptr %0, ptr %2, align 8
  %3 = load ptr, ptr %2, align 8
  %4 = getelementptr inbounds nuw %"class.llvm::ImutAVLTree", ptr %3, i32 0, i32 8
  %5 = load i32, ptr %4, align 4
  %6 = add i32 %5, -1
  store i32 %6, ptr %4, align 4
  %7 = icmp eq i32 %6, 0
  br i1 %7, label %8, label %9

8:                                                ; preds = %1
  call void @_ZN4llvm11ImutAVLTreeINS_16ImutKeyValueInfoIN5clang4ento16EnvironmentEntryENS3_4SValEEEE7destroyEv(ptr noundef nonnull align 8 dereferenceable(88) %3)
  br label %9

9:                                                ; preds = %8, %1
  ret void
}

; Function Attrs: mustprogress nounwind uwtable
define linkonce_odr hidden void @_ZN4llvm11ImutAVLTreeINS_16ImutKeyValueInfoIN5clang4ento16EnvironmentEntryENS3_4SValEEEE6retainEv(ptr noundef nonnull align 8 dereferenceable(88) %0) #0 comdat align 2 {
  %2 = alloca ptr, align 8
  store ptr %0, ptr %2, align 8
  %3 = load ptr, ptr %2, align 8
  %4 = getelementptr inbounds nuw %"class.llvm::ImutAVLTree", ptr %3, i32 0, i32 8
  %5 = load i32, ptr %4, align 4
  %6 = add i32 %5, 1
  store i32 %6, ptr %4, align 4
  ret void
}

; Function Attrs: mustprogress nounwind uwtable
define linkonce_odr hidden void @_ZN4llvm22IntrusiveRefCntPtrInfoINS_11ImutAVLTreeINS_16ImutKeyValueInfoIN5clang4ento16EnvironmentEntryENS4_4SValEEEEEE7releaseEPS8_(ptr noundef %0) #0 comdat align 2 {
  %2 = alloca ptr, align 8
  store ptr %0, ptr %2, align 8
  %3 = load ptr, ptr %2, align 8
  call void @_ZN4llvm11ImutAVLTreeINS_16ImutKeyValueInfoIN5clang4ento16EnvironmentEntryENS3_4SValEEEE7releaseEv(ptr noundef nonnull align 8 dereferenceable(88) %3)
  ret void
}

; Function Attrs: mustprogress nounwind uwtable
define linkonce_odr hidden void @_ZN4llvm22IntrusiveRefCntPtrInfoINS_11ImutAVLTreeINS_16ImutKeyValueInfoIN5clang4ento16EnvironmentEntryENS4_4SValEEEEEE6retainEPS8_(ptr noundef %0) #0 comdat align 2 {
  %2 = alloca ptr, align 8
  store ptr %0, ptr %2, align 8
  %3 = load ptr, ptr %2, align 8
  call void @_ZN4llvm11ImutAVLTreeINS_16ImutKeyValueInfoIN5clang4ento16EnvironmentEntryENS3_4SValEEEE6retainEv(ptr noundef nonnull align 8 dereferenceable(88) %3)
  ret void
}

; Function Attrs: mustprogress nounwind uwtable
define linkonce_odr hidden void @_ZN4llvm18IntrusiveRefCntPtrINS_11ImutAVLTreeINS_16ImutKeyValueInfoIN5clang4ento16EnvironmentEntryENS4_4SValEEEEEEC2EOS9_(ptr noundef nonnull align 8 dereferenceable(8) %0, ptr noundef nonnull align 8 dereferenceable(8) %1) unnamed_addr #0 comdat align 2 {
  %3 = alloca ptr, align 8
  %4 = alloca ptr, align 8
  store ptr %0, ptr %3, align 8
  store ptr %1, ptr %4, align 8
  %5 = load ptr, ptr %3, align 8
  %6 = getelementptr inbounds nuw %"class.llvm::IntrusiveRefCntPtr", ptr %5, i32 0, i32 0
  %7 = load ptr, ptr %4, align 8
  %8 = getelementptr inbounds nuw %"class.llvm::IntrusiveRefCntPtr", ptr %7, i32 0, i32 0
  %9 = load ptr, ptr %8, align 8
  store ptr %9, ptr %6, align 8
  %10 = load ptr, ptr %4, align 8
  %11 = getelementptr inbounds nuw %"class.llvm::IntrusiveRefCntPtr", ptr %10, i32 0, i32 0
  store ptr null, ptr %11, align 8
  ret void
}

; Function Attrs: mustprogress nounwind uwtable
define linkonce_odr hidden void @_ZN4llvm18IntrusiveRefCntPtrINS_11ImutAVLTreeINS_16ImutKeyValueInfoIN5clang4ento16EnvironmentEntryENS4_4SValEEEEEE7releaseEv(ptr noundef nonnull align 8 dereferenceable(8) %0) #0 comdat align 2 {
  %2 = alloca ptr, align 8
  store ptr %0, ptr %2, align 8
  %3 = load ptr, ptr %2, align 8
  %4 = getelementptr inbounds nuw %"class.llvm::IntrusiveRefCntPtr", ptr %3, i32 0, i32 0
  %5 = load ptr, ptr %4, align 8
  %6 = icmp ne ptr %5, null
  br i1 %6, label %7, label %10

7:                                                ; preds = %1
  %8 = getelementptr inbounds nuw %"class.llvm::IntrusiveRefCntPtr", ptr %3, i32 0, i32 0
  %9 = load ptr, ptr %8, align 8
  call void @_ZN4llvm22IntrusiveRefCntPtrInfoINS_11ImutAVLTreeINS_16ImutKeyValueInfoIN5clang4ento16EnvironmentEntryENS4_4SValEEEEEE7releaseEPS8_(ptr noundef %9)
  br label %10

10:                                               ; preds = %7, %1
  ret void
}

; Function Attrs: mustprogress nounwind uwtable
define linkonce_odr hidden void @_ZN4llvm18IntrusiveRefCntPtrINS_11ImutAVLTreeINS_16ImutKeyValueInfoIN5clang4ento16EnvironmentEntryENS4_4SValEEEEEE6retainEv(ptr noundef nonnull align 8 dereferenceable(8) %0) #0 comdat align 2 {
  %2 = alloca ptr, align 8
  store ptr %0, ptr %2, align 8
  %3 = load ptr, ptr %2, align 8
  %4 = getelementptr inbounds nuw %"class.llvm::IntrusiveRefCntPtr", ptr %3, i32 0, i32 0
  %5 = load ptr, ptr %4, align 8
  %6 = icmp ne ptr %5, null
  br i1 %6, label %7, label %10

7:                                                ; preds = %1
  %8 = getelementptr inbounds nuw %"class.llvm::IntrusiveRefCntPtr", ptr %3, i32 0, i32 0
  %9 = load ptr, ptr %8, align 8
  call void @_ZN4llvm22IntrusiveRefCntPtrInfoINS_11ImutAVLTreeINS_16ImutKeyValueInfoIN5clang4ento16EnvironmentEntryENS4_4SValEEEEEE6retainEPS8_(ptr noundef %9)
  br label %10

10:                                               ; preds = %7, %1
  ret void
}

; Function Attrs: mustprogress nounwind uwtable
define linkonce_odr hidden void @_ZN4llvm12ImmutableMapIN5clang4ento16EnvironmentEntryENS2_4SValENS_16ImutKeyValueInfoIS3_S4_EEEC2EOS7_(ptr noundef nonnull align 8 dereferenceable(8) %0, ptr noundef nonnull align 8 dereferenceable(8) %1) unnamed_addr #0 comdat align 2 {
  %3 = alloca ptr, align 8
  %4 = alloca ptr, align 8
  store ptr %0, ptr %3, align 8
  store ptr %1, ptr %4, align 8
  %5 = load ptr, ptr %3, align 8
  %6 = getelementptr inbounds nuw %"class.llvm::ImmutableMap", ptr %5, i32 0, i32 0
  %7 = load ptr, ptr %4, align 8
  %8 = getelementptr inbounds nuw %"class.llvm::ImmutableMap", ptr %7, i32 0, i32 0
  call void @_ZN4llvm18IntrusiveRefCntPtrINS_11ImutAVLTreeINS_16ImutKeyValueInfoIN5clang4ento16EnvironmentEntryENS4_4SValEEEEEEC2EOS9_(ptr noundef nonnull align 8 dereferenceable(8) %6, ptr noundef nonnull align 8 dereferenceable(8) %8)
  ret void
}

; Function Attrs: mustprogress nounwind uwtable
define linkonce_odr hidden void @_ZN4llvm18IntrusiveRefCntPtrINS_11ImutAVLTreeINS_16ImutKeyValueInfoIN5clang4ento16EnvironmentEntryENS4_4SValEEEEEED2Ev(ptr noundef nonnull align 8 dereferenceable(8) %0) unnamed_addr #0 comdat align 2 {
  %2 = alloca ptr, align 8
  store ptr %0, ptr %2, align 8
  %3 = load ptr, ptr %2, align 8
  call void @_ZN4llvm18IntrusiveRefCntPtrINS_11ImutAVLTreeINS_16ImutKeyValueInfoIN5clang4ento16EnvironmentEntryENS4_4SValEEEEEE7releaseEv(ptr noundef nonnull align 8 dereferenceable(8) %3)
  ret void
}

; Function Attrs: mustprogress nounwind uwtable
define linkonce_odr hidden void @_ZN4llvm18IntrusiveRefCntPtrINS_11ImutAVLTreeINS_16ImutKeyValueInfoIN5clang4ento16EnvironmentEntryENS4_4SValEEEEEEC2ERKS9_(ptr noundef nonnull align 8 dereferenceable(8) %0, ptr noundef nonnull align 8 dereferenceable(8) %1) unnamed_addr #0 comdat align 2 {
  %3 = alloca ptr, align 8
  %4 = alloca ptr, align 8
  store ptr %0, ptr %3, align 8
  store ptr %1, ptr %4, align 8
  %5 = load ptr, ptr %3, align 8
  %6 = getelementptr inbounds nuw %"class.llvm::IntrusiveRefCntPtr", ptr %5, i32 0, i32 0
  %7 = load ptr, ptr %4, align 8
  %8 = getelementptr inbounds nuw %"class.llvm::IntrusiveRefCntPtr", ptr %7, i32 0, i32 0
  %9 = load ptr, ptr %8, align 8
  store ptr %9, ptr %6, align 8
  call void @_ZN4llvm18IntrusiveRefCntPtrINS_11ImutAVLTreeINS_16ImutKeyValueInfoIN5clang4ento16EnvironmentEntryENS4_4SValEEEEEE6retainEv(ptr noundef nonnull align 8 dereferenceable(8) %5)
  ret void
}

; Function Attrs: mustprogress nounwind uwtable
define linkonce_odr hidden noundef zeroext i8 @_ZNK5clang4ento4SVal7getKindEv(ptr noundef nonnull align 8 dereferenceable(9) %0) #0 comdat align 2 {
  %2 = alloca ptr, align 8
  store ptr %0, ptr %2, align 8
  %3 = load ptr, ptr %2, align 8
  %4 = getelementptr inbounds nuw %"class.clang::ento::SVal", ptr %3, i32 0, i32 1
  %5 = load i8, ptr %4, align 8
  ret i8 %5
}

; Function Attrs: mustprogress nounwind uwtable
define linkonce_odr hidden void @_ZN5clang4ento11EnvironmentC2EOS1_(ptr noundef nonnull align 8 dereferenceable(8) %0, ptr noundef nonnull align 8 dereferenceable(8) %1) unnamed_addr #0 comdat align 2 {
  %3 = alloca ptr, align 8
  %4 = alloca ptr, align 8
  store ptr %0, ptr %3, align 8
  store ptr %1, ptr %4, align 8
  %5 = load ptr, ptr %3, align 8
  %6 = getelementptr inbounds nuw %"class.clang::ento::Environment", ptr %5, i32 0, i32 0
  %7 = load ptr, ptr %4, align 8
  %8 = getelementptr inbounds nuw %"class.clang::ento::Environment", ptr %7, i32 0, i32 0
  call void @_ZN4llvm12ImmutableMapIN5clang4ento16EnvironmentEntryENS2_4SValENS_16ImutKeyValueInfoIS3_S4_EEEC2EOS7_(ptr noundef nonnull align 8 dereferenceable(8) %6, ptr noundef nonnull align 8 dereferenceable(8) %8)
  ret void
}

; Function Attrs: mustprogress nounwind uwtable
define linkonce_odr hidden void @_ZN4llvm12ImmutableMapIN5clang4ento16EnvironmentEntryENS2_4SValENS_16ImutKeyValueInfoIS3_S4_EEED2Ev(ptr noundef nonnull align 8 dereferenceable(8) %0) unnamed_addr #0 comdat align 2 {
  %2 = alloca ptr, align 8
  store ptr %0, ptr %2, align 8
  %3 = load ptr, ptr %2, align 8
  %4 = getelementptr inbounds nuw %"class.llvm::ImmutableMap", ptr %3, i32 0, i32 0
  call void @_ZN4llvm18IntrusiveRefCntPtrINS_11ImutAVLTreeINS_16ImutKeyValueInfoIN5clang4ento16EnvironmentEntryENS4_4SValEEEEEED2Ev(ptr noundef nonnull align 8 dereferenceable(8) %4) #10
  ret void
}

; Function Attrs: mustprogress nounwind uwtable
define linkonce_odr hidden void @_ZN5clang4ento11EnvironmentC2EN4llvm12ImmutableMapINS0_16EnvironmentEntryENS0_4SValENS2_16ImutKeyValueInfoIS4_S5_EEEE(ptr noundef nonnull align 8 dereferenceable(8) %0, ptr noundef %1) unnamed_addr #0 comdat align 2 {
  %3 = alloca ptr, align 8
  %4 = alloca ptr, align 8
  store ptr %0, ptr %3, align 8
  store ptr %1, ptr %4, align 8
  %5 = load ptr, ptr %3, align 8
  %6 = getelementptr inbounds nuw %"class.clang::ento::Environment", ptr %5, i32 0, i32 0
  call void @_ZN4llvm12ImmutableMapIN5clang4ento16EnvironmentEntryENS2_4SValENS_16ImutKeyValueInfoIS3_S4_EEEC2ERKS7_(ptr noundef nonnull align 8 dereferenceable(8) %6, ptr noundef nonnull align 8 dereferenceable(8) %1)
  ret void
}

; Function Attrs: mustprogress nounwind uwtable
define linkonce_odr hidden void @_ZN4llvm12ImmutableMapIN5clang4ento16EnvironmentEntryENS2_4SValENS_16ImutKeyValueInfoIS3_S4_EEEC2ERKS7_(ptr noundef nonnull align 8 dereferenceable(8) %0, ptr noundef nonnull align 8 dereferenceable(8) %1) unnamed_addr #0 comdat align 2 {
  %3 = alloca ptr, align 8
  %4 = alloca ptr, align 8
  store ptr %0, ptr %3, align 8
  store ptr %1, ptr %4, align 8
  %5 = load ptr, ptr %3, align 8
  %6 = getelementptr inbounds nuw %"class.llvm::ImmutableMap", ptr %5, i32 0, i32 0
  %7 = load ptr, ptr %4, align 8
  %8 = getelementptr inbounds nuw %"class.llvm::ImmutableMap", ptr %7, i32 0, i32 0
  call void @_ZN4llvm18IntrusiveRefCntPtrINS_11ImutAVLTreeINS_16ImutKeyValueInfoIN5clang4ento16EnvironmentEntryENS4_4SValEEEEEEC2ERKS9_(ptr noundef nonnull align 8 dereferenceable(8) %6, ptr noundef nonnull align 8 dereferenceable(8) %8)
  ret void
}

; Function Attrs: mustprogress nounwind uwtable
define linkonce_odr hidden noundef zeroext i1 @_ZNK5clang4ento4SVal9isUnknownEv(ptr noundef nonnull align 8 dereferenceable(9) %0) #0 comdat align 2 {
  %2 = alloca ptr, align 8
  store ptr %0, ptr %2, align 8
  %3 = load ptr, ptr %2, align 8
  %4 = call noundef zeroext i8 @_ZNK5clang4ento4SVal7getKindEv(ptr noundef nonnull align 8 dereferenceable(9) %3)
  %5 = zext i8 %4 to i32
  %6 = icmp eq i32 %5, 1
  ret i1 %6
}

; Function Attrs: mustprogress nounwind uwtable
define dso_local void @_ZN5clang4ento18EnvironmentManager8bindExprENS0_11EnvironmentERKNS0_16EnvironmentEntryENS0_4SValEb(ptr dead_on_unwind noalias writable sret(%"class.clang::ento::Environment") align 8 %0, ptr noundef nonnull align 8 dereferenceable(88) %1, ptr noundef %2, ptr noundef nonnull align 8 dereferenceable(16) %3, ptr %4, i8 %5, i1 noundef zeroext %6) #0 align 2 {
  %8 = alloca ptr, align 8
  %9 = alloca %"class.clang::ento::SVal", align 8
  %10 = alloca ptr, align 8
  %11 = alloca ptr, align 8
  %12 = alloca ptr, align 8
  %13 = alloca i8, align 1
  %14 = alloca %"class.llvm::ImmutableMap", align 8
  %15 = alloca %"class.llvm::ImmutableMap", align 8
  %16 = alloca %"class.llvm::ImmutableMap", align 8
  %17 = alloca %"class.llvm::ImmutableMap", align 8
  store ptr %0, ptr %8, align 8
  %18 = getelementptr inbounds nuw { ptr, i8 }, ptr %9, i32 0, i32 0
  store ptr %4, ptr %18, align 8
  %19 = getelementptr inbounds nuw { ptr, i8 }, ptr %9, i32 0, i32 1
  store i8 %5, ptr %19, align 8
  store ptr %1, ptr %10, align 8
  store ptr %2, ptr %11, align 8
  store ptr %3, ptr %12, align 8
  %20 = zext i1 %6 to i8
  store i8 %20, ptr %13, align 1
  %21 = load ptr, ptr %10, align 8
  %22 = call noundef zeroext i1 @_ZNK5clang4ento4SVal9isUnknownEv(ptr noundef nonnull align 8 dereferenceable(9) %9)
  br i1 %22, label %23, label %31

23:                                               ; preds = %7
  %24 = load i8, ptr %13, align 1
  %25 = trunc i8 %24 to i1
  br i1 %25, label %26, label %30

26:                                               ; preds = %23
  %27 = getelementptr inbounds nuw %"class.clang::ento::EnvironmentManager", ptr %21, i32 0, i32 0
  %28 = getelementptr inbounds nuw %"class.clang::ento::Environment", ptr %2, i32 0, i32 0
  call void @_ZN4llvm12ImmutableMapIN5clang4ento16EnvironmentEntryENS2_4SValENS_16ImutKeyValueInfoIS3_S4_EEEC2ERKS7_(ptr noundef nonnull align 8 dereferenceable(8) %15, ptr noundef nonnull align 8 dereferenceable(8) %28)
  %29 = load ptr, ptr %12, align 8
  call void @_ZN4llvm12ImmutableMapIN5clang4ento16EnvironmentEntryENS2_4SValENS_16ImutKeyValueInfoIS3_S4_EEE7Factory6removeES7_RKS3_(ptr dead_on_unwind writable sret(%"class.llvm::ImmutableMap") align 8 %14, ptr noundef nonnull align 8 dereferenceable(81) %27, ptr noundef %15, ptr noundef nonnull align 8 dereferenceable(16) %29)
  call void @_ZN5clang4ento11EnvironmentC2EN4llvm12ImmutableMapINS0_16EnvironmentEntryENS0_4SValENS2_16ImutKeyValueInfoIS4_S5_EEEE(ptr noundef nonnull align 8 dereferenceable(8) %0, ptr noundef %14)
  call void @_ZN4llvm12ImmutableMapIN5clang4ento16EnvironmentEntryENS2_4SValENS_16ImutKeyValueInfoIS3_S4_EEED2Ev(ptr noundef nonnull align 8 dereferenceable(8) %14) #10
  call void @_ZN4llvm12ImmutableMapIN5clang4ento16EnvironmentEntryENS2_4SValENS_16ImutKeyValueInfoIS3_S4_EEED2Ev(ptr noundef nonnull align 8 dereferenceable(8) %15) #10
  br label %35

30:                                               ; preds = %23
  call void @_ZN5clang4ento11EnvironmentC2EOS1_(ptr noundef nonnull align 8 dereferenceable(8) %0, ptr noundef nonnull align 8 dereferenceable(8) %2)
  br label %35

31:                                               ; preds = %7
  %32 = getelementptr inbounds nuw %"class.clang::ento::EnvironmentManager", ptr %21, i32 0, i32 0
  %33 = getelementptr inbounds nuw %"class.clang::ento::Environment", ptr %2, i32 0, i32 0
  call void @_ZN4llvm12ImmutableMapIN5clang4ento16EnvironmentEntryENS2_4SValENS_16ImutKeyValueInfoIS3_S4_EEEC2ERKS7_(ptr noundef nonnull align 8 dereferenceable(8) %17, ptr noundef nonnull align 8 dereferenceable(8) %33)
  %34 = load ptr, ptr %12, align 8
  call void @_ZN4llvm12ImmutableMapIN5clang4ento16EnvironmentEntryENS2_4SValENS_16ImutKeyValueInfoIS3_S4_EEE7Factory3addES7_RKS3_RKS4_(ptr dead_on_unwind writable sret(%"class.llvm::ImmutableMap") align 8 %16, ptr noundef nonnull align 8 dereferenceable(81) %32, ptr noundef %17, ptr noundef nonnull align 8 dereferenceable(16) %34, ptr noundef nonnull align 8 dereferenceable(9) %9)
  call void @_ZN5clang4ento11EnvironmentC2EN4llvm12ImmutableMapINS0_16EnvironmentEntryENS0_4SValENS2_16ImutKeyValueInfoIS4_S5_EEEE(ptr noundef nonnull align 8 dereferenceable(8) %0, ptr noundef %16)
  call void @_ZN4llvm12ImmutableMapIN5clang4ento16EnvironmentEntryENS2_4SValENS_16ImutKeyValueInfoIS3_S4_EEED2Ev(ptr noundef nonnull align 8 dereferenceable(8) %16) #10
  call void @_ZN4llvm12ImmutableMapIN5clang4ento16EnvironmentEntryENS2_4SValENS_16ImutKeyValueInfoIS3_S4_EEED2Ev(ptr noundef nonnull align 8 dereferenceable(8) %17) #10
  br label %35

35:                                               ; preds = %31, %30, %26
  ret void
}