; Function Attrs: mustprogress nounwind uwtable
define dso_local void @_ZN5clang4ento18EnvironmentManager8bindExprENS0_11EnvironmentERKNS0_16EnvironmentEntryENS0_4SValEb(ptr dead_on_unwind noalias writable writeonly sret(%"class.clang::ento::Environment") align 8 captures(none) initializes((0, 8)) %0, ptr noundef nonnull align 8 dereferenceable(88) %1, ptr noundef captures(none) %2, ptr noundef nonnull align 8 dereferenceable(16) %3, ptr %4, i8 %5, i1 noundef zeroext %6) local_unnamed_addr #0 align 2 {
  %8 = alloca %"class.clang::ento::SVal", align 8
  %9 = alloca %"class.llvm::ImmutableMap", align 8
  %10 = alloca %"class.llvm::ImmutableMap", align 8
  %11 = alloca %"class.llvm::ImmutableMap", align 8
  %12 = alloca %"class.llvm::ImmutableMap", align 8
  store ptr %4, ptr %8, align 8
  %13 = getelementptr inbounds nuw i8, ptr %8, i64 8
  store i8 %5, ptr %13, align 8
  %14 = icmp eq i8 %5, 1
  %15 = load ptr, ptr %2, align 8
  br i1 %14, label %16, label %36

16:                                               ; preds = %7
  br i1 %6, label %17, label %35

17:                                               ; preds = %16
  store ptr %15, ptr %10, align 8
  %.not.i.i.i = icmp eq ptr %15, null
  br i1 %.not.i.i.i, label %_ZN4llvm12ImmutableMapIN5clang4ento16EnvironmentEntryENS2_4SValENS_16ImutKeyValueInfoIS3_S4_EEEC2ERKS7_.exit, label %18

18:                                               ; preds = %17
  %19 = getelementptr inbounds nuw i8, ptr %15, i64 84
  %20 = load i32, ptr %19, align 4
  %21 = add i32 %20, 1
  store i32 %21, ptr %19, align 4
  br label %_ZN4llvm12ImmutableMapIN5clang4ento16EnvironmentEntryENS2_4SValENS_16ImutKeyValueInfoIS3_S4_EEEC2ERKS7_.exit

_ZN4llvm12ImmutableMapIN5clang4ento16EnvironmentEntryENS2_4SValENS_16ImutKeyValueInfoIS3_S4_EEEC2ERKS7_.exit: ; preds = %17, %18
  call void @_ZN4llvm12ImmutableMapIN5clang4ento16EnvironmentEntryENS2_4SValENS_16ImutKeyValueInfoIS3_S4_EEE7Factory6removeES7_RKS3_(ptr dead_on_unwind nonnull writable sret(%"class.llvm::ImmutableMap") align 8 %9, ptr noundef nonnull align 8 dereferenceable(81) %1, ptr noundef nonnull %10, ptr noundef nonnull align 8 dereferenceable(16) %3)
  %22 = load ptr, ptr %9, align 8
  store ptr %22, ptr %0, align 8
  %.not.i.i.i.i = icmp eq ptr %22, null
  br i1 %.not.i.i.i.i, label %_ZN4llvm12ImmutableMapIN5clang4ento16EnvironmentEntryENS2_4SValENS_16ImutKeyValueInfoIS3_S4_EEED2Ev.exit, label %23

23:                                               ; preds = %_ZN4llvm12ImmutableMapIN5clang4ento16EnvironmentEntryENS2_4SValENS_16ImutKeyValueInfoIS3_S4_EEEC2ERKS7_.exit
  %24 = getelementptr inbounds nuw i8, ptr %22, i64 84
  %25 = load i32, ptr %24, align 4
  %26 = icmp eq i32 %25, 0
  br i1 %26, label %27, label %_ZN4llvm12ImmutableMapIN5clang4ento16EnvironmentEntryENS2_4SValENS_16ImutKeyValueInfoIS3_S4_EEED2Ev.exit

27:                                               ; preds = %23
  call void @_ZN4llvm11ImutAVLTreeINS_16ImutKeyValueInfoIN5clang4ento16EnvironmentEntryENS3_4SValEEEE7destroyEv(ptr noundef nonnull align 8 dereferenceable(88) %22)
  br label %_ZN4llvm12ImmutableMapIN5clang4ento16EnvironmentEntryENS2_4SValENS_16ImutKeyValueInfoIS3_S4_EEED2Ev.exit

_ZN4llvm12ImmutableMapIN5clang4ento16EnvironmentEntryENS2_4SValENS_16ImutKeyValueInfoIS3_S4_EEED2Ev.exit: ; preds = %_ZN4llvm12ImmutableMapIN5clang4ento16EnvironmentEntryENS2_4SValENS_16ImutKeyValueInfoIS3_S4_EEEC2ERKS7_.exit, %23, %27
  %28 = load ptr, ptr %10, align 8
  %.not.i.i.i4 = icmp eq ptr %28, null
  br i1 %.not.i.i.i4, label %_ZN4llvm12ImmutableMapIN5clang4ento16EnvironmentEntryENS2_4SValENS_16ImutKeyValueInfoIS3_S4_EEED2Ev.exit5, label %29

29:                                               ; preds = %_ZN4llvm12ImmutableMapIN5clang4ento16EnvironmentEntryENS2_4SValENS_16ImutKeyValueInfoIS3_S4_EEED2Ev.exit
  %30 = getelementptr inbounds nuw i8, ptr %28, i64 84
  %31 = load i32, ptr %30, align 4
  %32 = add i32 %31, -1
  store i32 %32, ptr %30, align 4
  %33 = icmp eq i32 %32, 0
  br i1 %33, label %34, label %_ZN4llvm12ImmutableMapIN5clang4ento16EnvironmentEntryENS2_4SValENS_16ImutKeyValueInfoIS3_S4_EEED2Ev.exit5

34:                                               ; preds = %29
  call void @_ZN4llvm11ImutAVLTreeINS_16ImutKeyValueInfoIN5clang4ento16EnvironmentEntryENS3_4SValEEEE7destroyEv(ptr noundef nonnull align 8 dereferenceable(88) %28)
  br label %_ZN4llvm12ImmutableMapIN5clang4ento16EnvironmentEntryENS2_4SValENS_16ImutKeyValueInfoIS3_S4_EEED2Ev.exit5

35:                                               ; preds = %16
  store ptr %15, ptr %0, align 8
  store ptr null, ptr %2, align 8
  br label %_ZN4llvm12ImmutableMapIN5clang4ento16EnvironmentEntryENS2_4SValENS_16ImutKeyValueInfoIS3_S4_EEED2Ev.exit5

36:                                               ; preds = %7
  store ptr %15, ptr %12, align 8
  %.not.i.i.i6 = icmp eq ptr %15, null
  br i1 %.not.i.i.i6, label %_ZN4llvm12ImmutableMapIN5clang4ento16EnvironmentEntryENS2_4SValENS_16ImutKeyValueInfoIS3_S4_EEEC2ERKS7_.exit7, label %37

37:                                               ; preds = %36
  %38 = getelementptr inbounds nuw i8, ptr %15, i64 84
  %39 = load i32, ptr %38, align 4
  %40 = add i32 %39, 1
  store i32 %40, ptr %38, align 4
  br label %_ZN4llvm12ImmutableMapIN5clang4ento16EnvironmentEntryENS2_4SValENS_16ImutKeyValueInfoIS3_S4_EEEC2ERKS7_.exit7

_ZN4llvm12ImmutableMapIN5clang4ento16EnvironmentEntryENS2_4SValENS_16ImutKeyValueInfoIS3_S4_EEEC2ERKS7_.exit7: ; preds = %36, %37
  call void @_ZN4llvm12ImmutableMapIN5clang4ento16EnvironmentEntryENS2_4SValENS_16ImutKeyValueInfoIS3_S4_EEE7Factory3addES7_RKS3_RKS4_(ptr dead_on_unwind nonnull writable sret(%"class.llvm::ImmutableMap") align 8 %11, ptr noundef nonnull align 8 dereferenceable(81) %1, ptr noundef nonnull %12, ptr noundef nonnull align 8 dereferenceable(16) %3, ptr noundef nonnull align 8 dereferenceable(9) %8)
  %41 = load ptr, ptr %11, align 8
  store ptr %41, ptr %0, align 8
  %.not.i.i.i.i8 = icmp eq ptr %41, null
  br i1 %.not.i.i.i.i8, label %_ZN4llvm12ImmutableMapIN5clang4ento16EnvironmentEntryENS2_4SValENS_16ImutKeyValueInfoIS3_S4_EEED2Ev.exit11, label %42

42:                                               ; preds = %_ZN4llvm12ImmutableMapIN5clang4ento16EnvironmentEntryENS2_4SValENS_16ImutKeyValueInfoIS3_S4_EEEC2ERKS7_.exit7
  %43 = getelementptr inbounds nuw i8, ptr %41, i64 84
  %44 = load i32, ptr %43, align 4
  %45 = icmp eq i32 %44, 0
  br i1 %45, label %46, label %_ZN4llvm12ImmutableMapIN5clang4ento16EnvironmentEntryENS2_4SValENS_16ImutKeyValueInfoIS3_S4_EEED2Ev.exit11

46:                                               ; preds = %42
  call void @_ZN4llvm11ImutAVLTreeINS_16ImutKeyValueInfoIN5clang4ento16EnvironmentEntryENS3_4SValEEEE7destroyEv(ptr noundef nonnull align 8 dereferenceable(88) %41)
  br label %_ZN4llvm12ImmutableMapIN5clang4ento16EnvironmentEntryENS2_4SValENS_16ImutKeyValueInfoIS3_S4_EEED2Ev.exit11

_ZN4llvm12ImmutableMapIN5clang4ento16EnvironmentEntryENS2_4SValENS_16ImutKeyValueInfoIS3_S4_EEED2Ev.exit11: ; preds = %_ZN4llvm12ImmutableMapIN5clang4ento16EnvironmentEntryENS2_4SValENS_16ImutKeyValueInfoIS3_S4_EEEC2ERKS7_.exit7, %42, %46
  %47 = load ptr, ptr %12, align 8
  %.not.i.i.i12 = icmp eq ptr %47, null
  br i1 %.not.i.i.i12, label %_ZN4llvm12ImmutableMapIN5clang4ento16EnvironmentEntryENS2_4SValENS_16ImutKeyValueInfoIS3_S4_EEED2Ev.exit5, label %48

48:                                               ; preds = %_ZN4llvm12ImmutableMapIN5clang4ento16EnvironmentEntryENS2_4SValENS_16ImutKeyValueInfoIS3_S4_EEED2Ev.exit11
  %49 = getelementptr inbounds nuw i8, ptr %47, i64 84
  %50 = load i32, ptr %49, align 4
  %51 = add i32 %50, -1
  store i32 %51, ptr %49, align 4
  %52 = icmp eq i32 %51, 0
  br i1 %52, label %53, label %_ZN4llvm12ImmutableMapIN5clang4ento16EnvironmentEntryENS2_4SValENS_16ImutKeyValueInfoIS3_S4_EEED2Ev.exit5

53:                                               ; preds = %48
  call void @_ZN4llvm11ImutAVLTreeINS_16ImutKeyValueInfoIN5clang4ento16EnvironmentEntryENS3_4SValEEEE7destroyEv(ptr noundef nonnull align 8 dereferenceable(88) %47)
  br label %_ZN4llvm12ImmutableMapIN5clang4ento16EnvironmentEntryENS2_4SValENS_16ImutKeyValueInfoIS3_S4_EEED2Ev.exit5

_ZN4llvm12ImmutableMapIN5clang4ento16EnvironmentEntryENS2_4SValENS_16ImutKeyValueInfoIS3_S4_EEED2Ev.exit5: ; preds = %53, %48, %_ZN4llvm12ImmutableMapIN5clang4ento16EnvironmentEntryENS2_4SValENS_16ImutKeyValueInfoIS3_S4_EEED2Ev.exit11, %34, %29, %_ZN4llvm12ImmutableMapIN5clang4ento16EnvironmentEntryENS2_4SValENS_16ImutKeyValueInfoIS3_S4_EEED2Ev.exit, %35
  ret void
}